(lp0
VCamR
p1
aVROP
p2
aVSynthetic_PhlF
p3
aVSynthetic_SicA
p4
aVSynthetic_invF2
p5
aVKanR
p6
aVLacI
p7
aVMalE_SuMMV
p8
aVYFP_sgRNA
p9
aVdCas9
p10
aVmRFP1_sgRNA
p11
aVmf_LON
p12
aVaaeA
p13
aVaaeB
p14
aVaaeR
p15
aVaaeX
p16
aVaas
p17
aVaat
p18
aVabgA
p19
aVabgB
p20
aVabgR
p21
aVabgT
p22
aVabrB
p23
aVaccA
p24
aVaccB
p25
aVaccC
p26
aVaccD
p27
aVaceA
p28
aVaceB
p29
aVaceE
p30
aVaceF
p31
aVaceK
p32
aVackA
p33
aVacnA
p34
aVacnB
p35
aVacpH
p36
aVacpP
p37
aVacpS
p38
aVacpT
p39
aVacrA
p40
aVacrB
p41
aVacrD
p42
aVacrE
p43
aVacrF
p44
aVacrR
p45
aVacrS
p46
aVacrZ
p47
aVacs
p48
aVactP
p49
aVacuI
p50
aVada
p51
aVadd
p52
aVadeD
p53
aVadeP
p54
aVadeQ
p55
aVadhE
p56
aVadhP
p57
aVadiA
p58
aVadiC
p59
aVadiY
p60
aVadk
p61
aVaegA
p62
aVaer
p63
aVaes
p64
aVafuC
p65
aVagaB
p66
aVagaC
p67
aVagaD
p68
aVagaI
p69
aVagaR
p70
aVagaS
p71
aVagaV
p72
aVagp
p73
aVahpC
p74
aVahpF
p75
aVahr
p76
aVaidB
p77
aVais
p78
aValaA
p79
aValaC
p80
aValaE
p81
aValaS
p82
aValdA
p83
aValdB
p84
aValkA
p85
aValkB
p86
aVallA
p87
aVallB
p88
aVallC
p89
aVallD
p90
aVallE
p91
aVallR
p92
aVallS
p93
aValpA
p94
aValr
p95
aValsA
p96
aValsB
p97
aValsC
p98
aValsE
p99
aValsK
p100
aValsR
p101
aValx
p102
aVamiA
p103
aVamiB
p104
aVamiC
p105
aVamiD
p106
aVamn
p107
aVampC
p108
aVampD
p109
aVampE
p110
aVampG
p111
aVampH
p112
aVamtB
p113
aVamyA
p114
aVanmK
p115
aVansA
p116
aVansB
p117
aVansP
p118
aVapaG
p119
aVapaH
p120
aVapbE
p121
aVaphA
p122
aVappA
p123
aVappY
p124
aVapt
p125
aVaqpZ
p126
aVaraA
p127
aVaraB
p128
aVaraC
p129
aVaraD
p130
aVaraE
p131
aVaraF
p132
aVaraG
p133
aVaraH
p134
aVaraJ
p135
aVarcA
p136
aVarcB
p137
aVarfA
p138
aVarfB
p139
aVargA
p140
aVargB
p141
aVargC
p142
aVargD
p143
aVargE
p144
aVargF
p145
aVargG
p146
aVargH
p147
aVargI
p148
aVargK
p149
aVargO
p150
aVargP
p151
aVargR
p152
aVargS
p153
aVargT
p154
aVariR
p155
aVarnA
p156
aVarnB
p157
aVarnC
p158
aVarnD
p159
aVarnE
p160
aVarnF
p161
aVarnT
p162
aVaroA
p163
aVaroB
p164
aVaroC
p165
aVaroD
p166
aVaroE
p167
aVaroF
p168
aVaroG
p169
aVaroH
p170
aVaroK
p171
aVaroL
p172
aVaroM
p173
aVaroP
p174
aVarpA
p175
aVarsB
p176
aVarsC
p177
aVarsR
p178
aVartI
p179
aVartJ
p180
aVartM
p181
aVartP
p182
aVartQ
p183
aVascB
p184
aVascF
p185
aVascG
p186
aVasd
p187
aVaslA
p188
aVaslB
p189
aVasmA
p190
aVasnA
p191
aVasnB
p192
aVasnC
p193
aVasnS
p194
aVaspA
p195
aVaspC
p196
aVaspS
p197
aVasr
p198
aVastA
p199
aVastB
p200
aVastC
p201
aVastD
p202
aVastE
p203
aVatoA
p204
aVatoB
p205
aVatoC
p206
aVatoD
p207
aVatoE
p208
aVatoS
p209
aVatpA
p210
aVatpB
p211
aVatpC
p212
aVatpD
p213
aVatpE
p214
aVatpF
p215
aVatpG
p216
aVatpH
p217
aVatpI
p218
aVavtA
p219
aVazoR
p220
aVazuC
p221
aVbacA
p222
aVbaeR
p223
aVbaeS
p224
aVbamA
p225
aVbamB
p226
aVbamC
p227
aVbamD
p228
aVbamE
p229
aVbarA
p230
aVbasR
p231
aVbasS
p232
aVbax
p233
aVbcp
p234
aVbcr
p235
aVbcsA
p236
aVbcsB
p237
aVbcsC
p238
aVbcsE
p239
aVbcsF
p240
aVbcsG
p241
aVbcsZ
p242
aVbdcA
p243
aVbdcR
p244
aVbdm
p245
aVbepA
p246
aVbetA
p247
aVbetB
p248
aVbetI
p249
aVbetT
p250
aVbfd
p251
aVbfr
p252
aVbglA
p253
aVbglB
p254
aVbglF
p255
aVbglG
p256
aVbglH
p257
aVbglJ
p258
aVbglX
p259
aVbhsA
p260
aVbioA
p261
aVbioB
p262
aVbioC
p263
aVbioD
p264
aVbioF
p265
aVbioH
p266
aVbirA
p267
aVbisC
p268
aVblc
p269
aVblr
p270
aVbluF
p271
aVbluR
p272
aVbolA
p273
aVborD
p274
aVbrnQ
p275
aVbsmA
p276
aVbssR
p277
aVbssS
p278
aVbtuB
p279
aVbtuC
p280
aVbtuD
p281
aVbtuE
p282
aVbtuF
p283
aVbtuR
p284
aVcadA
p285
aVcadB
p286
aVcadC
p287
aVcaiA
p288
aVcaiB
p289
aVcaiC
p290
aVcaiD
p291
aVcaiE
p292
aVcaiF
p293
aVcaiT
p294
aVcan
p295
aVcarA
p296
aVcarB
p297
aVcasA
p298
aVcasB
p299
aVcasC
p300
aVcasD
p301
aVcasE
p302
aVcbdA
p303
aVcbdB
p304
aVcbdX
p305
aVcbeA
p306
aVcbl
p307
aVcbpA
p308
aVcbpM
p309
aVcbrA
p310
aVcbrB
p311
aVcbrC
p312
aVcbtA
p313
aVcca
p314
aVccmA
p315
aVccmB
p316
aVccmC
p317
aVccmD
p318
aVccmE
p319
aVccmF
p320
aVccmH
p321
aVcdaR
p322
aVcdd
p323
aVcdh
p324
aVcdsA
p325
aVcedA
p326
aVcfa
p327
aVchaA
p328
aVchaB
p329
aVchaC
p330
aVchbA
p331
aVchbB
p332
aVchbC
p333
aVchbF
p334
aVchbG
p335
aVchbR
p336
aVcheA
p337
aVcheB
p338
aVcheR
p339
aVcheW
p340
aVcheY
p341
aVcheZ
p342
aVchiA
p343
aVchiP
p344
aVchiQ
p345
aVcho
p346
aVchpB
p347
aVchpS
p348
aVchrR
p349
aVcirA
p350
aVcitA
p351
aVcitB
p352
aVcitC
p353
aVcitD
p354
aVcitE
p355
aVcitF
p356
aVcitG
p357
aVcitT
p358
aVcitX
p359
aVclcA
p360
aVclcB
p361
aVclpA
p362
aVclpB
p363
aVclpP
p364
aVclpS
p365
aVclpX
p366
aVclsA
p367
aVclsB
p368
aVclsC
p369
aVcmk
p370
aVcmoA
p371
aVcmoB
p372
aVcmtA
p373
aVcmtB
p374
aVcnu
p375
aVcoaA
p376
aVcoaD
p377
aVcoaE
p378
aVcobB
p379
aVcobC
p380
aVcobS
p381
aVcobT
p382
aVcobU
p383
aVcodA
p384
aVcodB
p385
aVcof
p386
aVcohE
p387
aVcopA
p388
aVcorA
p389
aVcpdA
p390
aVcpdB
p391
aVcpsB
p392
aVcpsG
p393
aVcptA
p394
aVcpxA
p395
aVcpxP
p396
aVcpxR
p397
aVcra
p398
aVcreA
p399
aVcreB
p400
aVcreC
p401
aVcreD
p402
aVcrfC
p403
aVcroE
p404
aVcrp
p405
aVcrr
p406
aVcsdA
p407
aVcsdE
p408
aVcsgA
p409
aVcsgB
p410
aVcsgC
p411
aVcsgD
p412
aVcsgE
p413
aVcsgF
p414
aVcsgG
p415
aVcsiD
p416
aVcsiE
p417
aVcsiR
p418
aVcspA
p419
aVcspB
p420
aVcspC
p421
aVcspD
p422
aVcspE
p423
aVcspF
p424
aVcspG
p425
aVcspH
p426
aVcspI
p427
aVcsrA
p428
aVcsrD
p429
aVcstA
p430
aVcueO
p431
aVcueR
p432
aVcurA
p433
aVcusA
p434
aVcusB
p435
aVcusC
p436
aVcusF
p437
aVcusR
p438
aVcusS
p439
aVcutA
p440
aVcutC
p441
aVcvpA
p442
aVcvrA
p443
aVcyaA
p444
aVcyaY
p445
aVcybB
p446
aVcycA
p447
aVcydA
p448
aVcydB
p449
aVcydC
p450
aVcydD
p451
aVcydX
p452
aVcynR
p453
aVcynS
p454
aVcynT
p455
aVcynX
p456
aVcyoA
p457
aVcyoB
p458
aVcyoC
p459
aVcyoD
p460
aVcyoE
p461
aVcysA
p462
aVcysB
p463
aVcysC
p464
aVcysD
p465
aVcysE
p466
aVcysG
p467
aVcysH
p468
aVcysI
p469
aVcysJ
p470
aVcysK
p471
aVcysM
p472
aVcysN
p473
aVcysP
p474
aVcysQ
p475
aVcysS
p476
aVcysU
p477
aVcysW
p478
aVcysZ
p479
aVcytR
p480
aVdacA
p481
aVdacB
p482
aVdacC
p483
aVdacD
p484
aVdadA
p485
aVdadX
p486
aVdam
p487
aVdamX
p488
aVdapA
p489
aVdapB
p490
aVdapD
p491
aVdapE
p492
aVdapF
p493
aVdauA
p494
aVdbpA
p495
aVdcd
p496
aVdcm
p497
aVdcp
p498
aVdcrB
p499
aVdctA
p500
aVdctR
p501
aVdcuA
p502
aVdcuB
p503
aVdcuC
p504
aVdcuD
p505
aVdcuR
p506
aVdcuS
p507
aVdcyD
p508
aVddlA
p509
aVddlB
p510
aVddpA
p511
aVddpB
p512
aVddpC
p513
aVddpD
p514
aVddpF
p515
aVddpX
p516
aVdeaD
p517
aVdedA
p518
aVdedD
p519
aVdef
p520
aVdegP
p521
aVdegQ
p522
aVdegS
p523
aVdeoA
p524
aVdeoB
p525
aVdeoC
p526
aVdeoD
p527
aVdeoR
p528
aVder
p529
aVdfp
p530
aVdgcZ
p531
aVdgkA
p532
aVdgoA
p533
aVdgoD
p534
aVdgoK
p535
aVdgoR
p536
aVdgoT
p537
aVdgt
p538
aVdhaK
p539
aVdhaL
p540
aVdhaM
p541
aVdhaR
p542
aVdiaA
p543
aVdicA
p544
aVdicB
p545
aVdicC
p546
aVdinB
p547
aVdinD
p548
aVdinF
p549
aVdinG
p550
aVdinI
p551
aVdinJ
p552
aVdinQ
p553
aVdjlA
p554
aVdjlB
p555
aVdjlC
p556
aVdkgA
p557
aVdkgB
p558
aVdksA
p559
aVdld
p560
aVdmlA
p561
aVdmlR
p562
aVdmsA
p563
aVdmsB
p564
aVdmsC
p565
aVdmsD
p566
aVdnaA
p567
aVdnaB
p568
aVdnaC
p569
aVdnaE
p570
aVdnaG
p571
aVdnaJ
p572
aVdnaK
p573
aVdnaN
p574
aVdnaQ
p575
aVdnaT
p576
aVdnaX
p577
aVdosC
p578
aVdosP
p579
aVdppA
p580
aVdppB
p581
aVdppC
p582
aVdppD
p583
aVdppF
p584
aVdps
p585
aVdsbA
p586
aVdsbB
p587
aVdsbC
p588
aVdsbD
p589
aVdsbE
p590
aVdsbG
p591
aVdsdA
p592
aVdsdC
p593
aVdsdX
p594
aVdsrB
p595
aVdtd
p596
aVdtpA
p597
aVdtpB
p598
aVdtpC
p599
aVdtpD
p600
aVdusA
p601
aVdusB
p602
aVdusC
p603
aVdut
p604
aVdxr
p605
aVdxs
p606
aVeamA
p607
aVeamB
p608
aVebgA
p609
aVebgC
p610
aVebgR
p611
aVecnA
p612
aVecnB
p613
aVeco
p614
aVecpA
p615
aVecpB
p616
aVecpC
p617
aVecpD
p618
aVecpE
p619
aVecpR
p620
aVeda
p621
aVedd
p622
aVefeB
p623
aVefeO
p624
aVefp
p625
aVelaA
p626
aVelaB
p627
aVelaD
p628
aVelbB
p629
aVelfA
p630
aVelfC
p631
aVelfD
p632
aVelfG
p633
aVelyC
p634
aVemrA
p635
aVemrB
p636
aVemrD
p637
aVemrE
p638
aVemrK
p639
aVemrY
p640
aVemtA
p641
aVendA
p642
aVeno
p643
aVentA
p644
aVentB
p645
aVentC
p646
aVentD
p647
aVentE
p648
aVentF
p649
aVentH
p650
aVentS
p651
aVenvC
p652
aVenvY
p653
aVenvZ
p654
aVepd
p655
aVepmA
p656
aVepmB
p657
aVepmC
p658
aVeptA
p659
aVeptB
p660
aVeptC
p661
aVera
p662
aVerpA
p663
aVessD
p664
aVessQ
p665
aVetk
p666
aVetp
p667
aVettA
p668
aVeutA
p669
aVeutB
p670
aVeutC
p671
aVeutD
p672
aVeutE
p673
aVeutG
p674
aVeutH
p675
aVeutJ
p676
aVeutK
p677
aVeutL
p678
aVeutM
p679
aVeutN
p680
aVeutP
p681
aVeutQ
p682
aVeutR
p683
aVeutS
p684
aVeutT
p685
aVevgA
p686
aVevgS
p687
aVexbB
p688
aVexbD
p689
aVexoX
p690
aVexuR
p691
aVexuT
p692
aVfabA
p693
aVfabB
p694
aVfabD
p695
aVfabF
p696
aVfabG
p697
aVfabH
p698
aVfabI
p699
aVfabR
p700
aVfabZ
p701
aVfadA
p702
aVfadB
p703
aVfadD
p704
aVfadE
p705
aVfadH
p706
aVfadI
p707
aVfadJ
p708
aVfadK
p709
aVfadL
p710
aVfadM
p711
aVfadR
p712
aVfau
p713
aVfbaA
p714
aVfbaB
p715
aVfbp
p716
aVfdhD
p717
aVfdhE
p718
aVfdhF
p719
aVfdnG
p720
aVfdnH
p721
aVfdnI
p722
aVfdoG
p723
aVfdoH
p724
aVfdoI
p725
aVfdrA
p726
aVfdx
p727
aVfeaB
p728
aVfeaR
p729
aVfecA
p730
aVfecB
p731
aVfecC
p732
aVfecD
p733
aVfecE
p734
aVfecI
p735
aVfecR
p736
aVfeoA
p737
aVfeoB
p738
aVfeoC
p739
aVfepA
p740
aVfepB
p741
aVfepC
p742
aVfepD
p743
aVfepE
p744
aVfepG
p745
aVfes
p746
aVfetA
p747
aVfetB
p748
aVffh
p749
aVfhlA
p750
aVfhuA
p751
aVfhuB
p752
aVfhuC
p753
aVfhuD
p754
aVfhuE
p755
aVfhuF
p756
aVfic
p757
aVfieF
p758
aVfimA
p759
aVfimB
p760
aVfimC
p761
aVfimD
p762
aVfimE
p763
aVfimF
p764
aVfimG
p765
aVfimH
p766
aVfimI
p767
aVfis
p768
aVfiu
p769
aVfixA
p770
aVfixB
p771
aVfixC
p772
aVfixX
p773
aVfklB
p774
aVfkpA
p775
aVfkpB
p776
aVflc
p777
aVfldA
p778
aVfldB
p779
aVflgA
p780
aVflgB
p781
aVflgC
p782
aVflgD
p783
aVflgE
p784
aVflgF
p785
aVflgG
p786
aVflgH
p787
aVflgI
p788
aVflgJ
p789
aVflgK
p790
aVflgL
p791
aVflgM
p792
aVflgN
p793
aVflhA
p794
aVflhB
p795
aVflhC
p796
aVflhD
p797
aVflhE
p798
aVfliA
p799
aVfliC
p800
aVfliD
p801
aVfliE
p802
aVfliF
p803
aVfliG
p804
aVfliH
p805
aVfliI
p806
aVfliJ
p807
aVfliK
p808
aVfliL
p809
aVfliM
p810
aVfliN
p811
aVfliO
p812
aVfliP
p813
aVfliQ
p814
aVfliR
p815
aVfliS
p816
aVfliT
p817
aVfliY
p818
aVfliZ
p819
aVflk
p820
aVflu
p821
aVflxA
p822
aVfmt
p823
aVfnr
p824
aVfocA
p825
aVfocB
p826
aVfolA
p827
aVfolB
p828
aVfolC
p829
aVfolD
p830
aVfolE
p831
aVfolK
p832
aVfolM
p833
aVfolP
p834
aVfolX
p835
aVfpr
p836
aVfrc
p837
aVfrdA
p838
aVfrdB
p839
aVfrdC
p840
aVfrdD
p841
aVfre
p842
aVfrlA
p843
aVfrlB
p844
aVfrlC
p845
aVfrlD
p846
aVfrlR
p847
aVfrmA
p848
aVfrmB
p849
aVfrmR
p850
aVfrr
p851
aVfrsA
p852
aVfruA
p853
aVfruB
p854
aVfruK
p855
aVfrvA
p856
aVfrvB
p857
aVfrvR
p858
aVfrvX
p859
aVfrwA
p860
aVfrwB
p861
aVfrwC
p862
aVfrwD
p863
aVfryA
p864
aVfryB
p865
aVfryC
p866
aVfsaA
p867
aVfsaB
p868
aVfsr
p869
aVftnA
p870
aVftnB
p871
aVftsA
p872
aVftsB
p873
aVftsE
p874
aVftsH
p875
aVftsI
p876
aVftsK
p877
aVftsL
p878
aVftsN
p879
aVftsP
p880
aVftsQ
p881
aVftsW
p882
aVftsX
p883
aVftsY
p884
aVftsZ
p885
aVfucA
p886
aVfucI
p887
aVfucK
p888
aVfucO
p889
aVfucP
p890
aVfucR
p891
aVfucU
p892
aVfumA
p893
aVfumB
p894
aVfumC
p895
aVfur
p896
aVfusA
p897
aVfxsA
p898
aVgabD
p899
aVgabP
p900
aVgabT
p901
aVgadA
p902
aVgadB
p903
aVgadC
p904
aVgadE
p905
aVgadW
p906
aVgadX
p907
aVgalE
p908
aVgalK
p909
aVgalM
p910
aVgalP
p911
aVgalR
p912
aVgalS
p913
aVgalT
p914
aVgalU
p915
aVgapA
p916
aVgarD
p917
aVgarK
p918
aVgarL
p919
aVgarP
p920
aVgarR
p921
aVgatA
p922
aVgatB
p923
aVgatD
p924
aVgatY
p925
aVgatZ
p926
aVgcd
p927
aVgcl
p928
aVgcvA
p929
aVgcvH
p930
aVgcvP
p931
aVgcvR
p932
aVgcvT
p933
aVgdhA
p934
aVgfcA
p935
aVgfcB
p936
aVgfcC
p937
aVgfcD
p938
aVgfcE
p939
aVggt
p940
aVghoS
p941
aVghoT
p942
aVghrA
p943
aVghrB
p944
aVghxP
p945
aVghxQ
p946
aVglcA
p947
aVglcB
p948
aVglcC
p949
aVglcD
p950
aVglcE
p951
aVglcF
p952
aVglcG
p953
aVgldA
p954
aVglf
p955
aVglgA
p956
aVglgB
p957
aVglgC
p958
aVglgP
p959
aVglgS
p960
aVglgX
p961
aVglk
p962
aVglmM
p963
aVglmS
p964
aVglmU
p965
aVglnA
p966
aVglnB
p967
aVglnD
p968
aVglnE
p969
aVglnG
p970
aVglnH
p971
aVglnK
p972
aVglnP
p973
aVglnQ
p974
aVglnS
p975
aVgloA
p976
aVgloB
p977
aVglpA
p978
aVglpB
p979
aVglpC
p980
aVglpD
p981
aVglpE
p982
aVglpF
p983
aVglpG
p984
aVglpK
p985
aVglpQ
p986
aVglpT
p987
aVglpX
p988
aVglrK
p989
aVglrR
p990
aVglsA
p991
aVglsB
p992
aVgltA
p993
aVgltB
p994
aVgltD
p995
aVgltF
p996
aVgltI
p997
aVgltJ
p998
aVgltK
p999
aVgltL
p1000
aVgltP
p1001
aVgltS
p1002
aVgltX
p1003
aVgluQ
p1004
aVglxK
p1005
aVglxR
p1006
aVglyA
p1007
aVglyQ
p1008
aVglyS
p1009
aVgmd
p1010
aVgmhA
p1011
aVgmhB
p1012
aVgmk
p1013
aVgmr
p1014
aVgnd
p1015
aVgnsA
p1016
aVgnsB
p1017
aVgntK
p1018
aVgntP
p1019
aVgntR
p1020
aVgntT
p1021
aVgntU
p1022
aVgntX
p1023
aVgor
p1024
aVgph
p1025
aVgpmA
p1026
aVgpmM
p1027
aVgpp
p1028
aVgpr
p1029
aVgpsA
p1030
aVgpt
p1031
aVgrcA
p1032
aVgreA
p1033
aVgreB
p1034
aVgroL
p1035
aVgroS
p1036
aVgrpE
p1037
aVgrxA
p1038
aVgrxB
p1039
aVgrxC
p1040
aVgrxD
p1041
aVgshA
p1042
aVgshB
p1043
aVgsiA
p1044
aVgsiB
p1045
aVgsiC
p1046
aVgsiD
p1047
aVgsk
p1048
aVgspA
p1049
aVgspB
p1050
aVgspC
p1051
aVgspD
p1052
aVgspE
p1053
aVgspF
p1054
aVgspG
p1055
aVgspH
p1056
aVgspI
p1057
aVgspJ
p1058
aVgspK
p1059
aVgspL
p1060
aVgspM
p1061
aVgspO
p1062
aVgss
p1063
aVgstA
p1064
aVgstB
p1065
aVgtrA
p1066
aVgtrB
p1067
aVgtrS
p1068
aVguaA
p1069
aVguaB
p1070
aVguaC
p1071
aVguaD
p1072
aVgudD
p1073
aVgudP
p1074
aVgudX
p1075
aVgyrA
p1076
aVgyrB
p1077
aVhcaB
p1078
aVhcaC
p1079
aVhcaD
p1080
aVhcaE
p1081
aVhcaF
p1082
aVhcaR
p1083
aVhcaT
p1084
aVhchA
p1085
aVhcp
p1086
aVhcr
p1087
aVhda
p1088
aVhdeA
p1089
aVhdeB
p1090
aVhdeD
p1091
aVhdfR
p1092
aVhdhA
p1093
aVhelD
p1094
aVhemA
p1095
aVhemB
p1096
aVhemC
p1097
aVhemD
p1098
aVhemE
p1099
aVhemF
p1100
aVhemG
p1101
aVhemH
p1102
aVhemL
p1103
aVhemN
p1104
aVhemX
p1105
aVhemY
p1106
aVhflC
p1107
aVhflD
p1108
aVhflK
p1109
aVhflX
p1110
aVhfq
p1111
aVhha
p1112
aVhicA
p1113
aVhicB
p1114
aVhigA
p1115
aVhigB
p1116
aVhinT
p1117
aVhipA
p1118
aVhipB
p1119
aVhisA
p1120
aVhisB
p1121
aVhisC
p1122
aVhisD
p1123
aVhisF
p1124
aVhisG
p1125
aVhisH
p1126
aVhisI
p1127
aVhisJ
p1128
aVhisL
p1129
aVhisM
p1130
aVhisP
p1131
aVhisQ
p1132
aVhisS
p1133
aVhiuH
p1134
aVhldD
p1135
aVhldE
p1136
aVhlyE
p1137
aVhmp
p1138
aVhns
p1139
aVhofB
p1140
aVhofC
p1141
aVhofM
p1142
aVhofN
p1143
aVhofO
p1144
aVhofP
p1145
aVhofQ
p1146
aVhokA
p1147
aVhokB
p1148
aVhokC
p1149
aVhokD
p1150
aVhokE
p1151
aVholA
p1152
aVholB
p1153
aVholC
p1154
aVholD
p1155
aVholE
p1156
aVhpf
p1157
aVhpt
p1158
aVhrpA
p1159
aVhrpB
p1160
aVhscA
p1161
aVhscB
p1162
aVhscC
p1163
aVhsdM
p1164
aVhsdR
p1165
aVhsdS
p1166
aVhslJ
p1167
aVhslO
p1168
aVhslR
p1169
aVhslU
p1170
aVhslV
p1171
aVhspQ
p1172
aVhsrA
p1173
aVhtpG
p1174
aVhtpX
p1175
aVhtrE
p1176
aVhupA
p1177
aVhupB
p1178
aVhyaA
p1179
aVhyaB
p1180
aVhyaC
p1181
aVhyaD
p1182
aVhyaE
p1183
aVhyaF
p1184
aVhybA
p1185
aVhybB
p1186
aVhybC
p1187
aVhybD
p1188
aVhybE
p1189
aVhybF
p1190
aVhybG
p1191
aVhybO
p1192
aVhycA
p1193
aVhycB
p1194
aVhycC
p1195
aVhycD
p1196
aVhycE
p1197
aVhycF
p1198
aVhycG
p1199
aVhycH
p1200
aVhycI
p1201
aVhydN
p1202
aVhyfA
p1203
aVhyfB
p1204
aVhyfC
p1205
aVhyfD
p1206
aVhyfE
p1207
aVhyfF
p1208
aVhyfG
p1209
aVhyfH
p1210
aVhyfI
p1211
aVhyfJ
p1212
aVhyfR
p1213
aVhyi
p1214
aVhypA
p1215
aVhypB
p1216
aVhypC
p1217
aVhypD
p1218
aVhypE
p1219
aVhypF
p1220
aVhypT
p1221
aVhyuA
p1222
aViaaA
p1223
aViadA
p1224
aViap
p1225
aVibaG
p1226
aVibpA
p1227
aVibpB
p1228
aVibsA
p1229
aVibsB
p1230
aVibsC
p1231
aVibsD
p1232
aVibsE
p1233
aVicd
p1234
aViceT
p1235
aViclR
p1236
aVidi
p1237
aVidnD
p1238
aVidnK
p1239
aVidnO
p1240
aVidnR
p1241
aVidnT
p1242
aVihfA
p1243
aVihfB
p1244
aVileS
p1245
aVilvA
p1246
aVilvB
p1247
aVilvC
p1248
aVilvD
p1249
aVilvE
p1250
aVilvH
p1251
aVilvI
p1252
aVilvL
p1253
aVilvM
p1254
aVilvN
p1255
aVilvX
p1256
aVilvY
p1257
aVinaA
p1258
aVinfA
p1259
aVinfB
p1260
aVinfC
p1261
aVinsA
p1262
aVinsB1
p1263
aVinsC1
p1264
aVinsD1
p1265
aVinsE1
p1266
aVinsF1
p1267
aVinsG
p1268
aVinsH1
p1269
aVinsI1
p1270
aVinsJ
p1271
aVinsK
p1272
aVinsL1
p1273
aVinsQ
p1274
aVintA
p1275
aVintD
p1276
aVintE
p1277
aVintF
p1278
aVintR
p1279
aVintS
p1280
aVintZ
p1281
aViraD
p1282
aViraM
p1283
aViraP
p1284
aViroK
p1285
aViscA
p1286
aViscR
p1287
aViscS
p1288
aViscU
p1289
aViscX
p1290
aVispA
p1291
aVispB
p1292
aVispD
p1293
aVispE
p1294
aVispF
p1295
aVispG
p1296
aVispH
p1297
aVispU
p1298
aVivbL
p1299
aVivy
p1300
aVkatE
p1301
aVkatG
p1302
aVkbaY
p1303
aVkbaZ
p1304
aVkbl
p1305
aVkch
p1306
aVkdgK
p1307
aVkdgR
p1308
aVkdgT
p1309
aVkdpA
p1310
aVkdpB
p1311
aVkdpC
p1312
aVkdpD
p1313
aVkdpE
p1314
aVkdpF
p1315
aVkdsA
p1316
aVkdsB
p1317
aVkdsC
p1318
aVkdsD
p1319
aVkduD
p1320
aVkduI
p1321
aVkefB
p1322
aVkefC
p1323
aVkefF
p1324
aVkefG
p1325
aVkgtP
p1326
aVkilR
p1327
aVkptA
p1328
aVkup
p1329
aVlacA
p1330
aVlacI
p1331
aVlacY
p1332
aVlacZ
p1333
aVlamB
p1334
aVldcA
p1335
aVldcC
p1336
aVldhA
p1337
aVldrA
p1338
aVldrB
p1339
aVldrC
p1340
aVldrD
p1341
aVldtA
p1342
aVldtB
p1343
aVldtC
p1344
aVldtD
p1345
aVldtE
p1346
aVlepA
p1347
aVlepB
p1348
aVleuA
p1349
aVleuB
p1350
aVleuC
p1351
aVleuD
p1352
aVleuE
p1353
aVleuL
p1354
aVleuO
p1355
aVleuS
p1356
aVlexA
p1357
aVlgoD
p1358
aVlgoR
p1359
aVlgoT
p1360
aVlgt
p1361
aVlhgO
p1362
aVlhr
p1363
aVligA
p1364
aVligB
p1365
aVligT
p1366
aVlipA
p1367
aVlipB
p1368
aVlit
p1369
aVlivF
p1370
aVlivG
p1371
aVlivH
p1372
aVlivJ
p1373
aVlivK
p1374
aVlivM
p1375
aVlldD
p1376
aVlldP
p1377
aVlldR
p1378
aVlnt
p1379
aVloiP
p1380
aVlolA
p1381
aVlolB
p1382
aVlolC
p1383
aVlolD
p1384
aVlolE
p1385
aVlon
p1386
aVlpd
p1387
aVlplA
p1388
aVlplT
p1389
aVlpoA
p1390
aVlpoB
p1391
aVlpp
p1392
aVlptA
p1393
aVlptB
p1394
aVlptC
p1395
aVlptD
p1396
aVlptE
p1397
aVlptF
p1398
aVlptG
p1399
aVlpxA
p1400
aVlpxB
p1401
aVlpxC
p1402
aVlpxD
p1403
aVlpxH
p1404
aVlpxK
p1405
aVlpxL
p1406
aVlpxM
p1407
aVlpxP
p1408
aVlpxT
p1409
aVlrhA
p1410
aVlrp
p1411
aVlspA
p1412
aVlsrA
p1413
aVlsrB
p1414
aVlsrC
p1415
aVlsrD
p1416
aVlsrF
p1417
aVlsrG
p1418
aVlsrK
p1419
aVlsrR
p1420
aVltaE
p1421
aVluxS
p1422
aVlysA
p1423
aVlysC
p1424
aVlysP
p1425
aVlysR
p1426
aVlysS
p1427
aVlysU
p1428
aVlyxK
p1429
aVmaa
p1430
aVmacA
p1431
aVmacB
p1432
aVmaeA
p1433
aVmaeB
p1434
aVmak
p1435
aVmalE
p1436
aVmalF
p1437
aVmalG
p1438
aVmalI
p1439
aVmalK
p1440
aVmalM
p1441
aVmalP
p1442
aVmalQ
p1443
aVmalS
p1444
aVmalT
p1445
aVmalX
p1446
aVmalY
p1447
aVmalZ
p1448
aVmanA
p1449
aVmanX
p1450
aVmanY
p1451
aVmanZ
p1452
aVmap
p1453
aVmarA
p1454
aVmarB
p1455
aVmarC
p1456
aVmarR
p1457
aVmatP
p1458
aVmazE
p1459
aVmazF
p1460
aVmazG
p1461
aVmcbA
p1462
aVmcbR
p1463
aVmcrA
p1464
aVmcrB
p1465
aVmcrC
p1466
aVmdaB
p1467
aVmdfA
p1468
aVmdh
p1469
aVmdlA
p1470
aVmdlB
p1471
aVmdtA
p1472
aVmdtB
p1473
aVmdtC
p1474
aVmdtE
p1475
aVmdtF
p1476
aVmdtG
p1477
aVmdtH
p1478
aVmdtI
p1479
aVmdtJ
p1480
aVmdtK
p1481
aVmdtL
p1482
aVmdtM
p1483
aVmdtN
p1484
aVmdtO
p1485
aVmdtP
p1486
aVmelA
p1487
aVmelB
p1488
aVmelR
p1489
aVmenA
p1490
aVmenB
p1491
aVmenC
p1492
aVmenD
p1493
aVmenE
p1494
aVmenF
p1495
aVmenH
p1496
aVmenI
p1497
aVmepA
p1498
aVmepH
p1499
aVmepM
p1500
aVmepS
p1501
aVmetA
p1502
aVmetB
p1503
aVmetC
p1504
aVmetE
p1505
aVmetF
p1506
aVmetG
p1507
aVmetH
p1508
aVmetI
p1509
aVmetJ
p1510
aVmetK
p1511
aVmetL
p1512
aVmetN
p1513
aVmetQ
p1514
aVmetR
p1515
aVmfd
p1516
aVmglA
p1517
aVmglB
p1518
aVmglC
p1519
aVmgrB
p1520
aVmgsA
p1521
aVmgtA
p1522
aVmgtL
p1523
aVmhpA
p1524
aVmhpB
p1525
aVmhpC
p1526
aVmhpD
p1527
aVmhpE
p1528
aVmhpF
p1529
aVmhpR
p1530
aVmhpT
p1531
aVmiaA
p1532
aVmiaB
p1533
aVminC
p1534
aVminD
p1535
aVminE
p1536
aVmioC
p1537
aVmipA
p1538
aVmlaA
p1539
aVmlaB
p1540
aVmlaC
p1541
aVmlaD
p1542
aVmlaE
p1543
aVmlaF
p1544
aVmlc
p1545
aVmliC
p1546
aVmlrA
p1547
aVmltA
p1548
aVmltB
p1549
aVmltC
p1550
aVmltD
p1551
aVmltF
p1552
aVmmuM
p1553
aVmmuP
p1554
aVmnaT
p1555
aVmngA
p1556
aVmngB
p1557
aVmngR
p1558
aVmnmA
p1559
aVmnmC
p1560
aVmnmE
p1561
aVmnmG
p1562
aVmnmH
p1563
aVmntH
p1564
aVmntP
p1565
aVmntR
p1566
aVmntS
p1567
aVmoaA
p1568
aVmoaB
p1569
aVmoaC
p1570
aVmoaD
p1571
aVmoaE
p1572
aVmobA
p1573
aVmobB
p1574
aVmocA
p1575
aVmodA
p1576
aVmodB
p1577
aVmodC
p1578
aVmodE
p1579
aVmodF
p1580
aVmoeA
p1581
aVmoeB
p1582
aVmog
p1583
aVmokB
p1584
aVmokC
p1585
aVmotA
p1586
aVmotB
p1587
aVmpaA
p1588
aVmpl
p1589
aVmppA
p1590
aVmprA
p1591
aVmqo
p1592
aVmqsA
p1593
aVmqsR
p1594
aVmraY
p1595
aVmraZ
p1596
aVmrcA
p1597
aVmrcB
p1598
aVmrdA
p1599
aVmrdB
p1600
aVmreB
p1601
aVmreC
p1602
aVmreD
p1603
aVmrp
p1604
aVmrr
p1605
aVmsbA
p1606
aVmscK
p1607
aVmscL
p1608
aVmscM
p1609
aVmscS
p1610
aVmsrA
p1611
aVmsrB
p1612
aVmsrC
p1613
aVmsyB
p1614
aVmtfA
p1615
aVmtgA
p1616
aVmtlA
p1617
aVmtlD
p1618
aVmtlR
p1619
aVmtn
p1620
aVmtr
p1621
aVmug
p1622
aVmukB
p1623
aVmukE
p1624
aVmukF
p1625
aVmurA
p1626
aVmurB
p1627
aVmurC
p1628
aVmurD
p1629
aVmurE
p1630
aVmurF
p1631
aVmurG
p1632
aVmurI
p1633
aVmurJ
p1634
aVmurP
p1635
aVmurQ
p1636
aVmurR
p1637
aVmutH
p1638
aVmutL
p1639
aVmutM
p1640
aVmutS
p1641
aVmutT
p1642
aVmutY
p1643
aVmzrA
p1644
aVnac
p1645
aVnadA
p1646
aVnadB
p1647
aVnadC
p1648
aVnadD
p1649
aVnadE
p1650
aVnadK
p1651
aVnadR
p1652
aVnagA
p1653
aVnagB
p1654
aVnagC
p1655
aVnagE
p1656
aVnagK
p1657
aVnagZ
p1658
aVnanA
p1659
aVnanC
p1660
aVnanE
p1661
aVnanK
p1662
aVnanM
p1663
aVnanR
p1664
aVnanS
p1665
aVnanT
p1666
aVnapA
p1667
aVnapB
p1668
aVnapC
p1669
aVnapD
p1670
aVnapF
p1671
aVnapG
p1672
aVnapH
p1673
aVnarG
p1674
aVnarH
p1675
aVnarI
p1676
aVnarJ
p1677
aVnarK
p1678
aVnarL
p1679
aVnarP
p1680
aVnarQ
p1681
aVnarU
p1682
aVnarV
p1683
aVnarW
p1684
aVnarX
p1685
aVnarY
p1686
aVnarZ
p1687
aVndh
p1688
aVndk
p1689
aVnei
p1690
aVnemA
p1691
aVnemR
p1692
aVnepI
p1693
aVnfi
p1694
aVnfo
p1695
aVnfrA
p1696
aVnfrB
p1697
aVnfsA
p1698
aVnfsB
p1699
aVnfuA
p1700
aVnhaA
p1701
aVnhaB
p1702
aVnhaR
p1703
aVnhoA
p1704
aVnikA
p1705
aVnikB
p1706
aVnikC
p1707
aVnikD
p1708
aVnikE
p1709
aVnikR
p1710
aVninE
p1711
aVnirB
p1712
aVnirC
p1713
aVnirD
p1714
aVnlpA
p1715
aVnlpC
p1716
aVnlpD
p1717
aVnlpE
p1718
aVnlpI
p1719
aVnnr
p1720
aVnohD
p1721
aVnorR
p1722
aVnorV
p1723
aVnorW
p1724
aVnpr
p1725
aVnrdA
p1726
aVnrdB
p1727
aVnrdD
p1728
aVnrdE
p1729
aVnrdF
p1730
aVnrdG
p1731
aVnrdH
p1732
aVnrdI
p1733
aVnrdR
p1734
aVnrfA
p1735
aVnrfB
p1736
aVnrfC
p1737
aVnrfD
p1738
aVnrfE
p1739
aVnrfF
p1740
aVnrfG
p1741
aVnsrR
p1742
aVnth
p1743
aVnudB
p1744
aVnudC
p1745
aVnudE
p1746
aVnudF
p1747
aVnudG
p1748
aVnudI
p1749
aVnudJ
p1750
aVnudK
p1751
aVnudL
p1752
aVnuoA
p1753
aVnuoB
p1754
aVnuoC
p1755
aVnuoE
p1756
aVnuoF
p1757
aVnuoG
p1758
aVnuoH
p1759
aVnuoI
p1760
aVnuoJ
p1761
aVnuoK
p1762
aVnuoL
p1763
aVnuoM
p1764
aVnuoN
p1765
aVnupC
p1766
aVnupG
p1767
aVnupX
p1768
aVnusA
p1769
aVnusB
p1770
aVnusG
p1771
aVobgE
p1772
aVogrK
p1773
aVogt
p1774
aVompA
p1775
aVompC
p1776
aVompF
p1777
aVompG
p1778
aVompL
p1779
aVompN
p1780
aVompR
p1781
aVompT
p1782
aVompW
p1783
aVompX
p1784
aVopgB
p1785
aVopgC
p1786
aVopgD
p1787
aVopgE
p1788
aVopgG
p1789
aVopgH
p1790
aVoppA
p1791
aVoppB
p1792
aVoppC
p1793
aVoppD
p1794
aVoppF
p1795
aVorn
p1796
aVosmB
p1797
aVosmC
p1798
aVosmE
p1799
aVosmF
p1800
aVosmY
p1801
aVotsA
p1802
aVotsB
p1803
aVoxc
p1804
aVoxyR
p1805
aVpaaA
p1806
aVpaaB
p1807
aVpaaC
p1808
aVpaaD
p1809
aVpaaE
p1810
aVpaaF
p1811
aVpaaG
p1812
aVpaaH
p1813
aVpaaI
p1814
aVpaaJ
p1815
aVpaaK
p1816
aVpaaX
p1817
aVpaaY
p1818
aVpaaZ
p1819
aVpabA
p1820
aVpabB
p1821
aVpabC
p1822
aVpagP
p1823
aVpal
p1824
aVpanB
p1825
aVpanC
p1826
aVpanD
p1827
aVpanE
p1828
aVpanF
p1829
aVpanM
p1830
aVpaoA
p1831
aVpaoB
p1832
aVpaoC
p1833
aVpaoD
p1834
aVparC
p1835
aVparE
p1836
aVpatA
p1837
aVpatD
p1838
aVpbpC
p1839
aVpbpG
p1840
aVpck
p1841
aVpcm
p1842
aVpcnB
p1843
aVpdhR
p1844
aVpdxA
p1845
aVpdxB
p1846
aVpdxH
p1847
aVpdxJ
p1848
aVpdxK
p1849
aVpdxY
p1850
aVpepA
p1851
aVpepB
p1852
aVpepD
p1853
aVpepE
p1854
aVpepN
p1855
aVpepP
p1856
aVpepQ
p1857
aVpepT
p1858
aVperR
p1859
aVpfkA
p1860
aVpfkB
p1861
aVpflA
p1862
aVpflB
p1863
aVpflC
p1864
aVpflD
p1865
aVpfo
p1866
aVpgaA
p1867
aVpgaB
p1868
aVpgaC
p1869
aVpgaD
p1870
aVpgi
p1871
aVpgk
p1872
aVpgl
p1873
aVpgm
p1874
aVpgpA
p1875
aVpgpB
p1876
aVpgpC
p1877
aVpgrR
p1878
aVpgsA
p1879
aVpheA
p1880
aVpheL
p1881
aVpheM
p1882
aVpheP
p1883
aVpheS
p1884
aVpheT
p1885
aVphnC
p1886
aVphnD
p1887
aVphnF
p1888
aVphnG
p1889
aVphnH
p1890
aVphnI
p1891
aVphnJ
p1892
aVphnK
p1893
aVphnL
p1894
aVphnM
p1895
aVphnN
p1896
aVphnO
p1897
aVphnP
p1898
aVphoA
p1899
aVphoB
p1900
aVphoE
p1901
aVphoH
p1902
aVphoP
p1903
aVphoQ
p1904
aVphoR
p1905
aVphoU
p1906
aVphp
p1907
aVphr
p1908
aVpinE
p1909
aVpinQ
p1910
aVpinR
p1911
aVpitA
p1912
aVpitB
p1913
aVpka
p1914
aVplaP
p1915
aVpldA
p1916
aVpldB
p1917
aVpliG
p1918
aVplsB
p1919
aVplsC
p1920
aVplsX
p1921
aVplsY
p1922
aVpmbA
p1923
aVpmrD
p1924
aVpmrR
p1925
aVpncA
p1926
aVpncB
p1927
aVpncC
p1928
aVpnp
p1929
aVpntA
p1930
aVpntB
p1931
aVpnuC
p1932
aVpolA
p1933
aVpolB
p1934
aVpotA
p1935
aVpotB
p1936
aVpotC
p1937
aVpotD
p1938
aVpotE
p1939
aVpotF
p1940
aVpotG
p1941
aVpotH
p1942
aVpotI
p1943
aVpoxB
p1944
aVppa
p1945
aVppc
p1946
aVppdA
p1947
aVppdB
p1948
aVppdC
p1949
aVppdD
p1950
aVpphA
p1951
aVpphB
p1952
aVppiA
p1953
aVppiB
p1954
aVppiC
p1955
aVppiD
p1956
aVppk
p1957
aVpppA
p1958
aVppsA
p1959
aVppsR
p1960
aVpptA
p1961
aVppx
p1962
aVpqiA
p1963
aVpqiB
p1964
aVpqiC
p1965
aVpqqL
p1966
aVprc
p1967
aVpreA
p1968
aVpreT
p1969
aVprfA
p1970
aVprfB
p1971
aVprfC
p1972
aVpriA
p1973
aVpriB
p1974
aVpriC
p1975
aVprkB
p1976
aVprlC
p1977
aVprlF
p1978
aVprmA
p1979
aVprmB
p1980
aVprmC
p1981
aVproA
p1982
aVproB
p1983
aVproC
p1984
aVproP
p1985
aVproQ
p1986
aVproS
p1987
aVproV
p1988
aVproW
p1989
aVproX
p1990
aVproY
p1991
aVprpB
p1992
aVprpC
p1993
aVprpD
p1994
aVprpE
p1995
aVprpR
p1996
aVprs
p1997
aVpsd
p1998
aVpsiE
p1999
aVpsiF
p2000
aVpspA
p2001
aVpspB
p2002
aVpspC
p2003
aVpspD
p2004
aVpspE
p2005
aVpspF
p2006
aVpspG
p2007
aVpssA
p2008
aVpstA
p2009
aVpstB
p2010
aVpstC
p2011
aVpstS
p2012
aVpsuG
p2013
aVpsuK
p2014
aVpsuT
p2015
aVpta
p2016
aVpth
p2017
aVptrA
p2018
aVptrB
p2019
aVptsG
p2020
aVptsH
p2021
aVptsI
p2022
aVptsN
p2023
aVptsP
p2024
aVpurA
p2025
aVpurB
p2026
aVpurC
p2027
aVpurD
p2028
aVpurE
p2029
aVpurF
p2030
aVpurH
p2031
aVpurK
p2032
aVpurL
p2033
aVpurM
p2034
aVpurN
p2035
aVpurR
p2036
aVpurT
p2037
aVpurU
p2038
aVputA
p2039
aVputP
p2040
aVpuuA
p2041
aVpuuB
p2042
aVpuuC
p2043
aVpuuD
p2044
aVpuuE
p2045
aVpuuP
p2046
aVpuuR
p2047
aVpykA
p2048
aVpykF
p2049
aVpyrB
p2050
aVpyrC
p2051
aVpyrD
p2052
aVpyrE
p2053
aVpyrF
p2054
aVpyrG
p2055
aVpyrH
p2056
aVpyrI
p2057
aVpyrL
p2058
aVqmcA
p2059
aVqorA
p2060
aVqorB
p2061
aVqseB
p2062
aVqseC
p2063
aVqueA
p2064
aVqueC
p2065
aVqueD
p2066
aVqueE
p2067
aVqueF
p2068
aVqueG
p2069
aVquuD
p2070
aVquuQ
p2071
aVracC
p2072
aVracR
p2073
aVradA
p2074
aVraiA
p2075
aVralR
p2076
aVrapA
p2077
aVrarA
p2078
aVrarD
p2079
aVratA
p2080
aVratB
p2081
aVravA
p2082
aVrayT
p2083
aVrbbA
p2084
aVrbfA
p2085
aVrbn
p2086
aVrbsA
p2087
aVrbsB
p2088
aVrbsC
p2089
aVrbsD
p2090
aVrbsK
p2091
aVrbsR
p2092
aVrcdA
p2093
aVrclA
p2094
aVrclB
p2095
aVrclC
p2096
aVrclR
p2097
aVrcnA
p2098
aVrcnB
p2099
aVrcnR
p2100
aVrcsA
p2101
aVrcsB
p2102
aVrcsC
p2103
aVrcsD
p2104
aVrcsF
p2105
aVrdgB
p2106
aVrdgC
p2107
aVrecA
p2108
aVrecB
p2109
aVrecC
p2110
aVrecD
p2111
aVrecE
p2112
aVrecF
p2113
aVrecG
p2114
aVrecJ
p2115
aVrecN
p2116
aVrecO
p2117
aVrecQ
p2118
aVrecR
p2119
aVrecT
p2120
aVrecX
p2121
aVrelA
p2122
aVrelB
p2123
aVrelE
p2124
aVrem
p2125
aVrep
p2126
aVrfaH
p2127
aVrfbA
p2128
aVrfbB
p2129
aVrfbC
p2130
aVrfbD
p2131
aVrffG
p2132
aVrffH
p2133
aVrhaA
p2134
aVrhaB
p2135
aVrhaD
p2136
aVrhaM
p2137
aVrhaR
p2138
aVrhaS
p2139
aVrhaT
p2140
aVrhlB
p2141
aVrhlE
p2142
aVrhmA
p2143
aVrhmD
p2144
aVrhmR
p2145
aVrhmT
p2146
aVrho
p2147
aVrhsA
p2148
aVrhsB
p2149
aVrhsC
p2150
aVrhsD
p2151
aVrhtA
p2152
aVrhtB
p2153
aVrhtC
p2154
aVribA
p2155
aVribB
p2156
aVribC
p2157
aVribD
p2158
aVribE
p2159
aVribF
p2160
aVridA
p2161
aVrihA
p2162
aVrihB
p2163
aVrihC
p2164
aVrimI
p2165
aVrimJ
p2166
aVrimK
p2167
aVrimL
p2168
aVrimM
p2169
aVrimO
p2170
aVrimP
p2171
aVrlmA
p2172
aVrlmB
p2173
aVrlmC
p2174
aVrlmD
p2175
aVrlmE
p2176
aVrlmF
p2177
aVrlmG
p2178
aVrlmH
p2179
aVrlmI
p2180
aVrlmJ
p2181
aVrlmL
p2182
aVrlmM
p2183
aVrlmN
p2184
aVrlpA
p2185
aVrluA
p2186
aVrluB
p2187
aVrluC
p2188
aVrluD
p2189
aVrluE
p2190
aVrluF
p2191
aVrmf
p2192
aVrmuC
p2193
aVrna
p2194
aVrnb
p2195
aVrnc
p2196
aVrnd
p2197
aVrne
p2198
aVrng
p2199
aVrnhA
p2200
aVrnhB
p2201
aVrnk
p2202
aVrnlA
p2203
aVrnlB
p2204
aVrnpA
p2205
aVrnr
p2206
aVrnt
p2207
aVrob
p2208
aVrodZ
p2209
aVrof
p2210
aVroxA
p2211
aVrpe
p2212
aVrpiA
p2213
aVrpiB
p2214
aVrplA
p2215
aVrplB
p2216
aVrplC
p2217
aVrplD
p2218
aVrplE
p2219
aVrplF
p2220
aVrplI
p2221
aVrplJ
p2222
aVrplK
p2223
aVrplL
p2224
aVrplM
p2225
aVrplN
p2226
aVrplO
p2227
aVrplP
p2228
aVrplQ
p2229
aVrplR
p2230
aVrplS
p2231
aVrplT
p2232
aVrplU
p2233
aVrplV
p2234
aVrplW
p2235
aVrplX
p2236
aVrplY
p2237
aVrpmA
p2238
aVrpmB
p2239
aVrpmC
p2240
aVrpmD
p2241
aVrpmE
p2242
aVrpmF
p2243
aVrpmG
p2244
aVrpmH
p2245
aVrpmI
p2246
aVrpmJ
p2247
aVrpoA
p2248
aVrpoB
p2249
aVrpoC
p2250
aVrpoD
p2251
aVrpoE
p2252
aVrpoH
p2253
aVrpoN
p2254
aVrpoS
p2255
aVrpoZ
p2256
aVrppH
p2257
aVrpsA
p2258
aVrpsB
p2259
aVrpsC
p2260
aVrpsD
p2261
aVrpsE
p2262
aVrpsF
p2263
aVrpsG
p2264
aVrpsH
p2265
aVrpsI
p2266
aVrpsJ
p2267
aVrpsK
p2268
aVrpsL
p2269
aVrpsM
p2270
aVrpsN
p2271
aVrpsO
p2272
aVrpsP
p2273
aVrpsQ
p2274
aVrpsR
p2275
aVrpsS
p2276
aVrpsT
p2277
aVrpsU
p2278
aVrraA
p2279
aVrraB
p2280
aVrrrD
p2281
aVrrrQ
p2282
aVrsd
p2283
aVrseA
p2284
aVrseB
p2285
aVrseC
p2286
aVrseP
p2287
aVrsfS
p2288
aVrsgA
p2289
aVrsmA
p2290
aVrsmB
p2291
aVrsmC
p2292
aVrsmD
p2293
aVrsmE
p2294
aVrsmF
p2295
aVrsmG
p2296
aVrsmH
p2297
aVrsmI
p2298
aVrsmJ
p2299
aVrspA
p2300
aVrspB
p2301
aVrspR
p2302
aVrssA
p2303
aVrssB
p2304
aVrstA
p2305
aVrstB
p2306
aVrsuA
p2307
aVrsxA
p2308
aVrsxB
p2309
aVrsxC
p2310
aVrsxD
p2311
aVrsxE
p2312
aVrsxG
p2313
aVrtcA
p2314
aVrtcB
p2315
aVrtcR
p2316
aVrtn
p2317
aVrusA
p2318
aVrutA
p2319
aVrutB
p2320
aVrutC
p2321
aVrutD
p2322
aVrutE
p2323
aVrutF
p2324
aVrutG
p2325
aVrutR
p2326
aVruvA
p2327
aVruvB
p2328
aVruvC
p2329
aVrzoD
p2330
aVrzoQ
p2331
aVrzoR
p2332
aVrzpD
p2333
aVrzpQ
p2334
aVsad
p2335
aVsafA
p2336
aVsanA
p2337
aVsapA
p2338
aVsapB
p2339
aVsapC
p2340
aVsapD
p2341
aVsapF
p2342
aVsatP
p2343
aVsbcB
p2344
aVsbcC
p2345
aVsbcD
p2346
aVsbmA
p2347
aVsbmC
p2348
aVsbp
p2349
aVscpA
p2350
aVscpB
p2351
aVscpC
p2352
aVsdaA
p2353
aVsdaB
p2354
aVsdaC
p2355
aVsdhA
p2356
aVsdhB
p2357
aVsdhC
p2358
aVsdhD
p2359
aVsdhE
p2360
aVsdiA
p2361
aVsecA
p2362
aVsecB
p2363
aVsecD
p2364
aVsecE
p2365
aVsecF
p2366
aVsecG
p2367
aVsecM
p2368
aVsecY
p2369
aVselA
p2370
aVselB
p2371
aVselD
p2372
aVseqA
p2373
aVserA
p2374
aVserB
p2375
aVserC
p2376
aVserS
p2377
aVsetA
p2378
aVsetB
p2379
aVsetC
p2380
aVsfmA
p2381
aVsfmC
p2382
aVsfmD
p2383
aVsfmF
p2384
aVsfmH
p2385
aVsfmZ
p2386
aVsfsA
p2387
aVsfsB
p2388
aVsgbE
p2389
aVsgbH
p2390
aVsgbU
p2391
aVsgcA
p2392
aVsgcB
p2393
aVsgcC
p2394
aVsgcE
p2395
aVsgcQ
p2396
aVsgcR
p2397
aVsgcX
p2398
aVsgrR
p2399
aVsgrT
p2400
aVshiA
p2401
aVshoB
p2402
aVsieB
p2403
aVsixA
p2404
aVskp
p2405
aVslmA
p2406
aVslp
p2407
aVslt
p2408
aVslyA
p2409
aVslyB
p2410
aVslyD
p2411
aVslyX
p2412
aVsmf
p2413
aVsmg
p2414
aVsmpB
p2415
aVsmrA
p2416
aVsmrB
p2417
aVsmtA
p2418
aVsodA
p2419
aVsodB
p2420
aVsodC
p2421
aVsohB
p2422
aVsolA
p2423
aVsoxR
p2424
aVsoxS
p2425
aVspeA
p2426
aVspeB
p2427
aVspeC
p2428
aVspeD
p2429
aVspeE
p2430
aVspeF
p2431
aVspeG
p2432
aVspoT
p2433
aVsppA
p2434
aVspy
p2435
aVsra
p2436
aVsrkA
p2437
aVsrlA
p2438
aVsrlB
p2439
aVsrlD
p2440
aVsrlE
p2441
aVsrlM
p2442
aVsrlQ
p2443
aVsrlR
p2444
aVsrmB
p2445
aVssb
p2446
aVsseA
p2447
aVsseB
p2448
aVsslE
p2449
aVssnA
p2450
aVsspA
p2451
aVsspB
p2452
aVsstT
p2453
aVssuA
p2454
aVssuB
p2455
aVssuC
p2456
aVssuD
p2457
aVssuE
p2458
aVstfP
p2459
aVstfQ
p2460
aVstfR
p2461
aVsthA
p2462
aVstpA
p2463
aVsucA
p2464
aVsucB
p2465
aVsucC
p2466
aVsucD
p2467
aVsufA
p2468
aVsufB
p2469
aVsufC
p2470
aVsufD
p2471
aVsufE
p2472
aVsufS
p2473
aVsugE
p2474
aVsuhB
p2475
aVsulA
p2476
aVsurA
p2477
aVsxy
p2478
aVsyd
p2479
aVsymE
p2480
aVtabA
p2481
aVtadA
p2482
aVtag
p2483
aVtalA
p2484
aVtalB
p2485
aVtam
p2486
aVtamA
p2487
aVtamB
p2488
aVtap
p2489
aVtar
p2490
aVtas
p2491
aVtatA
p2492
aVtatB
p2493
aVtatC
p2494
aVtatD
p2495
aVtatE
p2496
aVtauA
p2497
aVtauB
p2498
aVtauC
p2499
aVtauD
p2500
aVtcdA
p2501
aVtdcA
p2502
aVtdcB
p2503
aVtdcC
p2504
aVtdcD
p2505
aVtdcE
p2506
aVtdcF
p2507
aVtdcG
p2508
aVtdcR
p2509
aVtdh
p2510
aVtdk
p2511
aVtehA
p2512
aVtehB
p2513
aVtesA
p2514
aVtesB
p2515
aVtfaE
p2516
aVtfaP
p2517
aVtfaQ
p2518
aVtfaR
p2519
aVtgt
p2520
aVthiB
p2521
aVthiC
p2522
aVthiD
p2523
aVthiE
p2524
aVthiF
p2525
aVthiG
p2526
aVthiH
p2527
aVthiI
p2528
aVthiK
p2529
aVthiL
p2530
aVthiM
p2531
aVthiP
p2532
aVthiQ
p2533
aVthiS
p2534
aVthrA
p2535
aVthrB
p2536
aVthrC
p2537
aVthrL
p2538
aVthrS
p2539
aVthyA
p2540
aVtig
p2541
aVtilS
p2542
aVtisB
p2543
aVtktA
p2544
aVtktB
p2545
aVtldD
p2546
aVtmcA
p2547
aVtmk
p2548
aVtnaA
p2549
aVtnaB
p2550
aVtnaC
p2551
aVtolA
p2552
aVtolB
p2553
aVtolC
p2554
aVtolQ
p2555
aVtolR
p2556
aVtomB
p2557
aVtonB
p2558
aVtopA
p2559
aVtopB
p2560
aVtorA
p2561
aVtorC
p2562
aVtorD
p2563
aVtorI
p2564
aVtorR
p2565
aVtorS
p2566
aVtorT
p2567
aVtorY
p2568
aVtorZ
p2569
aVtpiA
p2570
aVtpr
p2571
aVtpx
p2572
aVtqsA
p2573
aVtreA
p2574
aVtreB
p2575
aVtreC
p2576
aVtreF
p2577
aVtreR
p2578
aVtrg
p2579
aVtrkA
p2580
aVtrkG
p2581
aVtrkH
p2582
aVtrmA
p2583
aVtrmD
p2584
aVtrmH
p2585
aVtrmI
p2586
aVtrmJ
p2587
aVtrmL
p2588
aVtrmN
p2589
aVtrpA
p2590
aVtrpB
p2591
aVtrpC
p2592
aVtrpD
p2593
aVtrpE
p2594
aVtrpL
p2595
aVtrpR
p2596
aVtrpS
p2597
aVtruA
p2598
aVtruB
p2599
aVtruC
p2600
aVtruD
p2601
aVtrxA
p2602
aVtrxB
p2603
aVtrxC
p2604
aVtsaA
p2605
aVtsaB
p2606
aVtsaC
p2607
aVtsaD
p2608
aVtsaE
p2609
aVtsf
p2610
aVtsgA
p2611
aVtsr
p2612
aVtsx
p2613
aVttcA
p2614
aVttdA
p2615
aVttdB
p2616
aVttdR
p2617
aVttdT
p2618
aVtufA
p2619
aVtufB
p2620
aVtus
p2621
aVtusA
p2622
aVtusB
p2623
aVtusC
p2624
aVtusD
p2625
aVtusE
p2626
aVtynA
p2627
aVtypA
p2628
aVtyrA
p2629
aVtyrB
p2630
aVtyrP
p2631
aVtyrR
p2632
aVtyrS
p2633
aVuacT
p2634
aVubiA
p2635
aVubiB
p2636
aVubiC
p2637
aVubiD
p2638
aVubiE
p2639
aVubiF
p2640
aVubiG
p2641
aVubiH
p2642
aVubiI
p2643
aVubiJ
p2644
aVubiX
p2645
aVucpA
p2646
aVudk
p2647
aVudp
p2648
aVugd
p2649
aVugpA
p2650
aVugpB
p2651
aVugpC
p2652
aVugpE
p2653
aVugpQ
p2654
aVuhpA
p2655
aVuhpB
p2656
aVuhpC
p2657
aVuhpT
p2658
aVuidA
p2659
aVuidB
p2660
aVuidC
p2661
aVuidR
p2662
aVulaA
p2663
aVulaB
p2664
aVulaC
p2665
aVulaD
p2666
aVulaE
p2667
aVulaF
p2668
aVulaG
p2669
aVulaR
p2670
aVumpG
p2671
aVumpH
p2672
aVumuC
p2673
aVumuD
p2674
aVung
p2675
aVuof
p2676
aVupp
p2677
aVuraA
p2678
aVusg
p2679
aVushA
p2680
aVuspA
p2681
aVuspB
p2682
aVuspC
p2683
aVuspD
p2684
aVuspE
p2685
aVuspF
p2686
aVuspG
p2687
aVuup
p2688
aVuvrA
p2689
aVuvrB
p2690
aVuvrC
p2691
aVuvrD
p2692
aVuvrY
p2693
aVuxaA
p2694
aVuxaB
p2695
aVuxaC
p2696
aVuxuA
p2697
aVuxuB
p2698
aVuxuR
p2699
aVvalS
p2700
aVves
p2701
aVviaA
p2702
aVvsr
p2703
aVwaaA
p2704
aVwaaB
p2705
aVwaaC
p2706
aVwaaF
p2707
aVwaaG
p2708
aVwaaH
p2709
aVwaaL
p2710
aVwaaO
p2711
aVwaaP
p2712
aVwaaQ
p2713
aVwaaR
p2714
aVwaaS
p2715
aVwaaU
p2716
aVwaaY
p2717
aVwaaZ
p2718
aVwbbH
p2719
aVwbbI
p2720
aVwbbJ
p2721
aVwbbK
p2722
aVwcaA
p2723
aVwcaB
p2724
aVwcaC
p2725
aVwcaD
p2726
aVwcaE
p2727
aVwcaF
p2728
aVwcaG
p2729
aVwcaH
p2730
aVwcaI
p2731
aVwcaJ
p2732
aVwcaK
p2733
aVwcaL
p2734
aVwcaM
p2735
aVwcaN
p2736
aVwecA
p2737
aVwecB
p2738
aVwecC
p2739
aVwecD
p2740
aVwecE
p2741
aVwecF
p2742
aVwecG
p2743
aVwecH
p2744
aVwrbA
p2745
aVwza
p2746
aVwzb
p2747
aVwzc
p2748
aVwzxB
p2749
aVwzxC
p2750
aVwzxE
p2751
aVwzyE
p2752
aVwzzB
p2753
aVwzzE
p2754
aVxanP
p2755
aVxanQ
p2756
aVxapA
p2757
aVxapB
p2758
aVxapR
p2759
aVxdhA
p2760
aVxdhB
p2761
aVxdhC
p2762
aVxdhD
p2763
aVxerC
p2764
aVxerD
p2765
aVxisE
p2766
aVxseA
p2767
aVxseB
p2768
aVxthA
p2769
aVxylA
p2770
aVxylB
p2771
aVxylE
p2772
aVxylF
p2773
aVxylG
p2774
aVxylH
p2775
aVxylR
p2776
aVyaaA
p2777
aVyaaI
p2778
aVyaaJ
p2779
aVyaaU
p2780
aVyaaW
p2781
aVyaaX
p2782
aVyaaY
p2783
aVyabI
p2784
aVyacC
p2785
aVyacG
p2786
aVyacH
p2787
aVyacL
p2788
aVyadC
p2789
aVyadD
p2790
aVyadE
p2791
aVyadG
p2792
aVyadH
p2793
aVyadI
p2794
aVyadK
p2795
aVyadL
p2796
aVyadM
p2797
aVyadN
p2798
aVyadS
p2799
aVyadV
p2800
aVyaeF
p2801
aVyaeH
p2802
aVyaeI
p2803
aVyaeP
p2804
aVyaeQ
p2805
aVyaeR
p2806
aVyafC
p2807
aVyafD
p2808
aVyafE
p2809
aVyafJ
p2810
aVyafK
p2811
aVyafL
p2812
aVyafN
p2813
aVyafO
p2814
aVyafP
p2815
aVyafQ
p2816
aVyafS
p2817
aVyafT
p2818
aVyafV
p2819
aVyafW
p2820
aVyafX
p2821
aVyafY
p2822
aVyafZ
p2823
aVyagA
p2824
aVyagE
p2825
aVyagF
p2826
aVyagG
p2827
aVyagH
p2828
aVyagI
p2829
aVyagK
p2830
aVyagL
p2831
aVyagM
p2832
aVyagN
p2833
aVyagU
p2834
aVyahA
p2835
aVyahB
p2836
aVyahC
p2837
aVyahD
p2838
aVyahE
p2839
aVyahF
p2840
aVyahG
p2841
aVyahI
p2842
aVyahJ
p2843
aVyahK
p2844
aVyahL
p2845
aVyahM
p2846
aVyahN
p2847
aVyahO
p2848
aVyaiA
p2849
aVyaiC
p2850
aVyaiE
p2851
aVyaiI
p2852
aVyaiL
p2853
aVyaiO
p2854
aVyaiP
p2855
aVyaiS
p2856
aVyaiV
p2857
aVyaiW
p2858
aVyaiY
p2859
aVyaiZ
p2860
aVyajC
p2861
aVyajD
p2862
aVyajG
p2863
aVyajI
p2864
aVyajL
p2865
aVyajO
p2866
aVyajQ
p2867
aVyajR
p2868
aVybaA
p2869
aVybaB
p2870
aVybaE
p2871
aVybaK
p2872
aVybaL
p2873
aVybaM
p2874
aVybaN
p2875
aVybaO
p2876
aVybaP
p2877
aVybaQ
p2878
aVybaT
p2879
aVybaV
p2880
aVybaY
p2881
aVybaZ
p2882
aVybbA
p2883
aVybbC
p2884
aVybbJ
p2885
aVybbN
p2886
aVybbO
p2887
aVybbP
p2888
aVybbW
p2889
aVybbY
p2890
aVybcF
p2891
aVybcH
p2892
aVybcI
p2893
aVybcJ
p2894
aVybcK
p2895
aVybcL
p2896
aVybcM
p2897
aVybcN
p2898
aVybcO
p2899
aVybcV
p2900
aVybcW
p2901
aVybdD
p2902
aVybdF
p2903
aVybdG
p2904
aVybdH
p2905
aVybdJ
p2906
aVybdK
p2907
aVybdL
p2908
aVybdM
p2909
aVybdN
p2910
aVybdO
p2911
aVybdR
p2912
aVybdZ
p2913
aVybeD
p2914
aVybeF
p2915
aVybeL
p2916
aVybeQ
p2917
aVybeR
p2918
aVybeT
p2919
aVybeU
p2920
aVybeX
p2921
aVybeY
p2922
aVybeZ
p2923
aVybfA
p2924
aVybfB
p2925
aVybfC
p2926
aVybfD
p2927
aVybfE
p2928
aVybfF
p2929
aVybfK
p2930
aVybfP
p2931
aVybgA
p2932
aVybgC
p2933
aVybgD
p2934
aVybgE
p2935
aVybgF
p2936
aVybgI
p2937
aVybgJ
p2938
aVybgK
p2939
aVybgL
p2940
aVybgO
p2941
aVybgP
p2942
aVybgQ
p2943
aVybgS
p2944
aVybhA
p2945
aVybhB
p2946
aVybhC
p2947
aVybhD
p2948
aVybhF
p2949
aVybhG
p2950
aVybhH
p2951
aVybhI
p2952
aVybhJ
p2953
aVybhK
p2954
aVybhL
p2955
aVybhM
p2956
aVybhN
p2957
aVybhP
p2958
aVybhQ
p2959
aVybhR
p2960
aVybhS
p2961
aVybiA
p2962
aVybiB
p2963
aVybiC
p2964
aVybiH
p2965
aVybiI
p2966
aVybiJ
p2967
aVybiO
p2968
aVybiR
p2969
aVybiT
p2970
aVybiU
p2971
aVybiV
p2972
aVybiW
p2973
aVybiX
p2974
aVybiY
p2975
aVybjC
p2976
aVybjD
p2977
aVybjE
p2978
aVybjG
p2979
aVybjH
p2980
aVybjI
p2981
aVybjJ
p2982
aVybjL
p2983
aVybjM
p2984
aVybjN
p2985
aVybjO
p2986
aVybjP
p2987
aVybjQ
p2988
aVybjS
p2989
aVybjT
p2990
aVybjX
p2991
aVycaC
p2992
aVycaD
p2993
aVycaI
p2994
aVycaK
p2995
aVycaL
p2996
aVycaM
p2997
aVycaN
p2998
aVycaO
p2999
aVycaP
p3000
aVycaQ
p3001
aVycaR
p3002
aVycbF
p3003
aVycbJ
p3004
aVycbK
p3005
aVycbL
p3006
aVycbU
p3007
aVycbV
p3008
aVycbX
p3009
aVycbZ
p3010
aVyccA
p3011
aVyccE
p3012
aVyccF
p3013
aVyccJ
p3014
aVyccM
p3015
aVyccS
p3016
aVyccT
p3017
aVyccU
p3018
aVyccX
p3019
aVycdT
p3020
aVycdU
p3021
aVycdX
p3022
aVycdY
p3023
aVycdZ
p3024
aVyceA
p3025
aVyceB
p3026
aVyceD
p3027
aVyceF
p3028
aVyceG
p3029
aVyceH
p3030
aVyceI
p3031
aVyceJ
p3032
aVyceK
p3033
aVyceM
p3034
aVyceO
p3035
aVyceQ
p3036
aVycfH
p3037
aVycfJ
p3038
aVycfL
p3039
aVycfP
p3040
aVycfQ
p3041
aVycfT
p3042
aVycfZ
p3043
aVycgB
p3044
aVycgG
p3045
aVycgJ
p3046
aVycgL
p3047
aVycgM
p3048
aVycgN
p3049
aVycgR
p3050
aVycgV
p3051
aVycgX
p3052
aVycgY
p3053
aVycgZ
p3054
aVychA
p3055
aVychE
p3056
aVychF
p3057
aVychH
p3058
aVychJ
p3059
aVychN
p3060
aVychO
p3061
aVychQ
p3062
aVyciA
p3063
aVyciB
p3064
aVyciC
p3065
aVyciE
p3066
aVyciF
p3067
aVyciG
p3068
aVyciH
p3069
aVyciI
p3070
aVyciK
p3071
aVyciM
p3072
aVyciN
p3073
aVyciO
p3074
aVyciQ
p3075
aVyciS
p3076
aVyciT
p3077
aVyciU
p3078
aVyciV
p3079
aVyciW
p3080
aVyciX
p3081
aVyciY
p3082
aVyciZ
p3083
aVycjD
p3084
aVycjF
p3085
aVycjG
p3086
aVycjM
p3087
aVycjN
p3088
aVycjO
p3089
aVycjP
p3090
aVycjQ
p3091
aVycjR
p3092
aVycjS
p3093
aVycjT
p3094
aVycjU
p3095
aVycjW
p3096
aVycjX
p3097
aVycjY
p3098
aVydaC
p3099
aVydaE
p3100
aVydaF
p3101
aVydaG
p3102
aVydaM
p3103
aVydaN
p3104
aVydaQ
p3105
aVydaS
p3106
aVydaT
p3107
aVydaU
p3108
aVydaV
p3109
aVydbC
p3110
aVydbD
p3111
aVydbH
p3112
aVydbJ
p3113
aVydbL
p3114
aVydcA
p3115
aVydcC
p3116
aVydcD
p3117
aVydcF
p3118
aVydcH
p3119
aVydcI
p3120
aVydcJ
p3121
aVydcK
p3122
aVydcL
p3123
aVydcN
p3124
aVydcO
p3125
aVydcP
p3126
aVydcR
p3127
aVydcS
p3128
aVydcT
p3129
aVydcU
p3130
aVydcV
p3131
aVydcX
p3132
aVydcY
p3133
aVydcZ
p3134
aVyddA
p3135
aVyddB
p3136
aVyddE
p3137
aVyddG
p3138
aVyddH
p3139
aVyddM
p3140
aVyddW
p3141
aVydeA
p3142
aVydeE
p3143
aVydeI
p3144
aVydeJ
p3145
aVydeM
p3146
aVydeN
p3147
aVydeO
p3148
aVydeP
p3149
aVydeQ
p3150
aVydeR
p3151
aVydeS
p3152
aVydfA
p3153
aVydfB
p3154
aVydfC
p3155
aVydfD
p3156
aVydfG
p3157
aVydfI
p3158
aVydfK
p3159
aVydfO
p3160
aVydfR
p3161
aVydfU
p3162
aVydfV
p3163
aVydfZ
p3164
aVydgA
p3165
aVydgC
p3166
aVydgD
p3167
aVydgH
p3168
aVydgI
p3169
aVydgJ
p3170
aVydgK
p3171
aVydgU
p3172
aVydhB
p3173
aVydhC
p3174
aVydhF
p3175
aVydhI
p3176
aVydhJ
p3177
aVydhK
p3178
aVydhL
p3179
aVydhP
p3180
aVydhQ
p3181
aVydhR
p3182
aVydhS
p3183
aVydhT
p3184
aVydhU
p3185
aVydhV
p3186
aVydhW
p3187
aVydhX
p3188
aVydhY
p3189
aVydhZ
p3190
aVydiB
p3191
aVydiE
p3192
aVydiF
p3193
aVydiH
p3194
aVydiJ
p3195
aVydiK
p3196
aVydiL
p3197
aVydiM
p3198
aVydiN
p3199
aVydiO
p3200
aVydiP
p3201
aVydiQ
p3202
aVydiR
p3203
aVydiS
p3204
aVydiT
p3205
aVydiU
p3206
aVydiV
p3207
aVydiY
p3208
aVydiZ
p3209
aVydjA
p3210
aVydjE
p3211
aVydjF
p3212
aVydjG
p3213
aVydjH
p3214
aVydjI
p3215
aVydjJ
p3216
aVydjK
p3217
aVydjL
p3218
aVydjM
p3219
aVydjN
p3220
aVydjO
p3221
aVydjX
p3222
aVydjY
p3223
aVydjZ
p3224
aVyeaC
p3225
aVyeaD
p3226
aVyeaE
p3227
aVyeaG
p3228
aVyeaH
p3229
aVyeaI
p3230
aVyeaJ
p3231
aVyeaK
p3232
aVyeaL
p3233
aVyeaM
p3234
aVyeaN
p3235
aVyeaO
p3236
aVyeaP
p3237
aVyeaQ
p3238
aVyeaR
p3239
aVyeaV
p3240
aVyeaW
p3241
aVyeaX
p3242
aVyeaY
p3243
aVyebB
p3244
aVyebC
p3245
aVyebE
p3246
aVyebF
p3247
aVyebG
p3248
aVyebK
p3249
aVyebO
p3250
aVyebQ
p3251
aVyebS
p3252
aVyebT
p3253
aVyebV
p3254
aVyebW
p3255
aVyebY
p3256
aVyebZ
p3257
aVyecA
p3258
aVyecC
p3259
aVyecD
p3260
aVyecE
p3261
aVyecF
p3262
aVyecH
p3263
aVyecJ
p3264
aVyecM
p3265
aVyecN
p3266
aVyecR
p3267
aVyecS
p3268
aVyecT
p3269
aVyedA
p3270
aVyedD
p3271
aVyedE
p3272
aVyedF
p3273
aVyedI
p3274
aVyedJ
p3275
aVyedK
p3276
aVyedL
p3277
aVyedP
p3278
aVyedQ
p3279
aVyedR
p3280
aVyedV
p3281
aVyedW
p3282
aVyedY
p3283
aVyedZ
p3284
aVyeeA
p3285
aVyeeD
p3286
aVyeeE
p3287
aVyeeJ
p3288
aVyeeN
p3289
aVyeeO
p3290
aVyeeR
p3291
aVyeeS
p3292
aVyeeT
p3293
aVyeeX
p3294
aVyeeY
p3295
aVyeeZ
p3296
aVyefM
p3297
aVyegD
p3298
aVyegE
p3299
aVyegH
p3300
aVyegI
p3301
aVyegJ
p3302
aVyegK
p3303
aVyegL
p3304
aVyegP
p3305
aVyegQ
p3306
aVyegR
p3307
aVyegS
p3308
aVyegT
p3309
aVyegU
p3310
aVyegV
p3311
aVyegW
p3312
aVyegX
p3313
aVyehA
p3314
aVyehB
p3315
aVyehC
p3316
aVyehD
p3317
aVyehE
p3318
aVyehI
p3319
aVyehK
p3320
aVyehL
p3321
aVyehM
p3322
aVyehP
p3323
aVyehR
p3324
aVyehS
p3325
aVyehT
p3326
aVyehU
p3327
aVyehW
p3328
aVyehX
p3329
aVyehY
p3330
aVyeiB
p3331
aVyeiE
p3332
aVyeiG
p3333
aVyeiH
p3334
aVyeiI
p3335
aVyeiL
p3336
aVyeiP
p3337
aVyeiQ
p3338
aVyeiR
p3339
aVyeiS
p3340
aVyeiW
p3341
aVyejA
p3342
aVyejB
p3343
aVyejE
p3344
aVyejF
p3345
aVyejG
p3346
aVyejH
p3347
aVyejK
p3348
aVyejL
p3349
aVyejM
p3350
aVyfaA
p3351
aVyfaD
p3352
aVyfaE
p3353
aVyfaL
p3354
aVyfaP
p3355
aVyfaQ
p3356
aVyfaT
p3357
aVyfaY
p3358
aVyfaZ
p3359
aVyfbK
p3360
aVyfbL
p3361
aVyfbM
p3362
aVyfbN
p3363
aVyfbO
p3364
aVyfbP
p3365
aVyfbR
p3366
aVyfbS
p3367
aVyfbT
p3368
aVyfbU
p3369
aVyfbV
p3370
aVyfcA
p3371
aVyfcC
p3372
aVyfcD
p3373
aVyfcE
p3374
aVyfcF
p3375
aVyfcG
p3376
aVyfcH
p3377
aVyfcI
p3378
aVyfcJ
p3379
aVyfcL
p3380
aVyfcO
p3381
aVyfcP
p3382
aVyfcQ
p3383
aVyfcR
p3384
aVyfcS
p3385
aVyfcV
p3386
aVyfcZ
p3387
aVyfdC
p3388
aVyfdE
p3389
aVyfdF
p3390
aVyfdK
p3391
aVyfdN
p3392
aVyfdP
p3393
aVyfdQ
p3394
aVyfdR
p3395
aVyfdS
p3396
aVyfdT
p3397
aVyfdV
p3398
aVyfdX
p3399
aVyfdY
p3400
aVyfeA
p3401
aVyfeC
p3402
aVyfeD
p3403
aVyfeH
p3404
aVyfeK
p3405
aVyfeN
p3406
aVyfeO
p3407
aVyfeR
p3408
aVyfeS
p3409
aVyfeW
p3410
aVyfeX
p3411
aVyfeY
p3412
aVyfeZ
p3413
aVyffB
p3414
aVyffL
p3415
aVyffM
p3416
aVyffN
p3417
aVyffO
p3418
aVyffP
p3419
aVyffQ
p3420
aVyffR
p3421
aVyffS
p3422
aVyfgD
p3423
aVyfgF
p3424
aVyfgG
p3425
aVyfgH
p3426
aVyfgI
p3427
aVyfgJ
p3428
aVyfgM
p3429
aVyfgO
p3430
aVyfhG
p3431
aVyfhH
p3432
aVyfhL
p3433
aVyfhM
p3434
aVyfhR
p3435
aVyfiB
p3436
aVyfiE
p3437
aVyfiF
p3438
aVyfiH
p3439
aVyfiL
p3440
aVyfiM
p3441
aVyfiN
p3442
aVyfiP
p3443
aVyfiR
p3444
aVyfjD
p3445
aVyfjH
p3446
aVyfjI
p3447
aVyfjJ
p3448
aVyfjK
p3449
aVyfjL
p3450
aVyfjM
p3451
aVyfjP
p3452
aVyfjQ
p3453
aVyfjR
p3454
aVyfjS
p3455
aVyfjT
p3456
aVyfjW
p3457
aVyfjX
p3458
aVyfjY
p3459
aVyfjZ
p3460
aVygaC
p3461
aVygaH
p3462
aVygaM
p3463
aVygaP
p3464
aVygaU
p3465
aVygaV
p3466
aVygaZ
p3467
aVygbA
p3468
aVygbE
p3469
aVygbF
p3470
aVygbI
p3471
aVygbJ
p3472
aVygbK
p3473
aVygbL
p3474
aVygbM
p3475
aVygbN
p3476
aVygbT
p3477
aVygcB
p3478
aVygcE
p3479
aVygcG
p3480
aVygcN
p3481
aVygcO
p3482
aVygcP
p3483
aVygcQ
p3484
aVygcR
p3485
aVygcS
p3486
aVygcU
p3487
aVygcW
p3488
aVygdB
p3489
aVygdD
p3490
aVygdG
p3491
aVygdH
p3492
aVygdI
p3493
aVygdQ
p3494
aVygdR
p3495
aVygeA
p3496
aVygeG
p3497
aVygeH
p3498
aVygeI
p3499
aVygeR
p3500
aVygeV
p3501
aVygeW
p3502
aVygeX
p3503
aVygeY
p3504
aVygfB
p3505
aVygfF
p3506
aVygfI
p3507
aVygfK
p3508
aVygfM
p3509
aVygfS
p3510
aVygfT
p3511
aVygfZ
p3512
aVyggC
p3513
aVyggD
p3514
aVyggE
p3515
aVyggF
p3516
aVyggI
p3517
aVyggL
p3518
aVyggM
p3519
aVyggN
p3520
aVyggP
p3521
aVyggR
p3522
aVyggS
p3523
aVyggT
p3524
aVyggU
p3525
aVyggW
p3526
aVyggX
p3527
aVyghA
p3528
aVyghB
p3529
aVyghD
p3530
aVyghG
p3531
aVyghQ
p3532
aVyghR
p3533
aVyghS
p3534
aVyghT
p3535
aVyghU
p3536
aVyghW
p3537
aVygiB
p3538
aVygiC
p3539
aVygiD
p3540
aVygiF
p3541
aVygiL
p3542
aVygiM
p3543
aVygiN
p3544
aVygiQ
p3545
aVygiS
p3546
aVygiV
p3547
aVygiW
p3548
aVygiZ
p3549
aVygjH
p3550
aVygjI
p3551
aVygjJ
p3552
aVygjK
p3553
aVygjP
p3554
aVygjQ
p3555
aVygjR
p3556
aVygjV
p3557
aVyhaB
p3558
aVyhaC
p3559
aVyhaH
p3560
aVyhaI
p3561
aVyhaJ
p3562
aVyhaK
p3563
aVyhaL
p3564
aVyhaM
p3565
aVyhaO
p3566
aVyhaV
p3567
aVyhbE
p3568
aVyhbJ
p3569
aVyhbO
p3570
aVyhbP
p3571
aVyhbQ
p3572
aVyhbS
p3573
aVyhbT
p3574
aVyhbU
p3575
aVyhbV
p3576
aVyhbW
p3577
aVyhbX
p3578
aVyhbY
p3579
aVyhcA
p3580
aVyhcB
p3581
aVyhcC
p3582
aVyhcD
p3583
aVyhcF
p3584
aVyhcG
p3585
aVyhcH
p3586
aVyhcN
p3587
aVyhcO
p3588
aVyhdE
p3589
aVyhdJ
p3590
aVyhdN
p3591
aVyhdP
p3592
aVyhdT
p3593
aVyhdU
p3594
aVyhdV
p3595
aVyhdX
p3596
aVyhdY
p3597
aVyhdZ
p3598
aVyheO
p3599
aVyheS
p3600
aVyheT
p3601
aVyheU
p3602
aVyheV
p3603
aVyhfA
p3604
aVyhfG
p3605
aVyhfK
p3606
aVyhfL
p3607
aVyhfS
p3608
aVyhfT
p3609
aVyhfU
p3610
aVyhfW
p3611
aVyhfX
p3612
aVyhfY
p3613
aVyhfZ
p3614
aVyhgA
p3615
aVyhgE
p3616
aVyhgF
p3617
aVyhgN
p3618
aVyhhA
p3619
aVyhhH
p3620
aVyhhI
p3621
aVyhhJ
p3622
aVyhhL
p3623
aVyhhM
p3624
aVyhhN
p3625
aVyhhQ
p3626
aVyhhS
p3627
aVyhhT
p3628
aVyhhW
p3629
aVyhhX
p3630
aVyhhY
p3631
aVyhhZ
p3632
aVyhiD
p3633
aVyhiI
p3634
aVyhiJ
p3635
aVyhiM
p3636
aVyhiN
p3637
aVyhjA
p3638
aVyhjB
p3639
aVyhjC
p3640
aVyhjD
p3641
aVyhjE
p3642
aVyhjG
p3643
aVyhjH
p3644
aVyhjJ
p3645
aVyhjK
p3646
aVyhjR
p3647
aVyhjV
p3648
aVyhjX
p3649
aVyhjY
p3650
aVyiaA
p3651
aVyiaB
p3652
aVyiaC
p3653
aVyiaD
p3654
aVyiaF
p3655
aVyiaG
p3656
aVyiaJ
p3657
aVyiaK
p3658
aVyiaL
p3659
aVyiaM
p3660
aVyiaN
p3661
aVyiaO
p3662
aVyiaT
p3663
aVyiaU
p3664
aVyiaV
p3665
aVyiaW
p3666
aVyiaY
p3667
aVyibA
p3668
aVyibB
p3669
aVyibF
p3670
aVyibG
p3671
aVyibH
p3672
aVyibI
p3673
aVyibL
p3674
aVyibN
p3675
aVyibQ
p3676
aVyibT
p3677
aVyicC
p3678
aVyicG
p3679
aVyicH
p3680
aVyicI
p3681
aVyicJ
p3682
aVyicL
p3683
aVyicN
p3684
aVyicR
p3685
aVyicS
p3686
aVyidA
p3687
aVyidB
p3688
aVyidC
p3689
aVyidD
p3690
aVyidE
p3691
aVyidF
p3692
aVyidG
p3693
aVyidH
p3694
aVyidI
p3695
aVyidJ
p3696
aVyidK
p3697
aVyidL
p3698
aVyidP
p3699
aVyidQ
p3700
aVyidR
p3701
aVyidX
p3702
aVyidZ
p3703
aVyieE
p3704
aVyieH
p3705
aVyieK
p3706
aVyieL
p3707
aVyieP
p3708
aVyifB
p3709
aVyifE
p3710
aVyifK
p3711
aVyifL
p3712
aVyigA
p3713
aVyigB
p3714
aVyigE
p3715
aVyigF
p3716
aVyigG
p3717
aVyigI
p3718
aVyigL
p3719
aVyigM
p3720
aVyigZ
p3721
aVyihA
p3722
aVyihD
p3723
aVyihF
p3724
aVyihG
p3725
aVyihI
p3726
aVyihL
p3727
aVyihM
p3728
aVyihN
p3729
aVyihO
p3730
aVyihP
p3731
aVyihQ
p3732
aVyihR
p3733
aVyihS
p3734
aVyihT
p3735
aVyihU
p3736
aVyihV
p3737
aVyihW
p3738
aVyihX
p3739
aVyihY
p3740
aVyiiD
p3741
aVyiiE
p3742
aVyiiF
p3743
aVyiiG
p3744
aVyiiM
p3745
aVyiiQ
p3746
aVyiiR
p3747
aVyiiS
p3748
aVyiiX
p3749
aVyijD
p3750
aVyijE
p3751
aVyijF
p3752
aVyijO
p3753
aVyjaA
p3754
aVyjaB
p3755
aVyjaG
p3756
aVyjaH
p3757
aVyjaZ
p3758
aVyjbB
p3759
aVyjbD
p3760
aVyjbE
p3761
aVyjbF
p3762
aVyjbG
p3763
aVyjbH
p3764
aVyjbJ
p3765
aVyjbL
p3766
aVyjbM
p3767
aVyjbQ
p3768
aVyjbR
p3769
aVyjbS
p3770
aVyjbT
p3771
aVyjcB
p3772
aVyjcC
p3773
aVyjcE
p3774
aVyjcF
p3775
aVyjcH
p3776
aVyjcO
p3777
aVyjcS
p3778
aVyjcZ
p3779
aVyjdC
p3780
aVyjdF
p3781
aVyjdI
p3782
aVyjdJ
p3783
aVyjdM
p3784
aVyjdN
p3785
aVyjdP
p3786
aVyjeH
p3787
aVyjeI
p3788
aVyjeJ
p3789
aVyjeM
p3790
aVyjeN
p3791
aVyjeO
p3792
aVyjeT
p3793
aVyjeV
p3794
aVyjfC
p3795
aVyjfF
p3796
aVyjfI
p3797
aVyjfJ
p3798
aVyjfK
p3799
aVyjfL
p3800
aVyjfM
p3801
aVyjfN
p3802
aVyjfP
p3803
aVyjfY
p3804
aVyjfZ
p3805
aVyjgA
p3806
aVyjgH
p3807
aVyjgL
p3808
aVyjgM
p3809
aVyjgN
p3810
aVyjgR
p3811
aVyjgZ
p3812
aVyjhB
p3813
aVyjhC
p3814
aVyjhF
p3815
aVyjhG
p3816
aVyjhH
p3817
aVyjhI
p3818
aVyjhP
p3819
aVyjhQ
p3820
aVyjhU
p3821
aVyjhX
p3822
aVyjiA
p3823
aVyjiC
p3824
aVyjiG
p3825
aVyjiH
p3826
aVyjiJ
p3827
aVyjiK
p3828
aVyjiL
p3829
aVyjiM
p3830
aVyjiN
p3831
aVyjiR
p3832
aVyjiS
p3833
aVyjiX
p3834
aVyjiY
p3835
aVyjjA
p3836
aVyjjB
p3837
aVyjjG
p3838
aVyjjI
p3839
aVyjjJ
p3840
aVyjjP
p3841
aVyjjQ
p3842
aVyjjU
p3843
aVyjjV
p3844
aVyjjW
p3845
aVyjjX
p3846
aVyjjY
p3847
aVyjjZ
p3848
aVyjtD
p3849
aVykfA
p3850
aVykfB
p3851
aVykfF
p3852
aVykfG
p3853
aVykfH
p3854
aVykfI
p3855
aVykfM
p3856
aVykgE
p3857
aVykgF
p3858
aVykgG
p3859
aVykgH
p3860
aVykgJ
p3861
aVykgL
p3862
aVykgM
p3863
aVykgO
p3864
aVykgR
p3865
aVylaB
p3866
aVylaC
p3867
aVylbE
p3868
aVylbF
p3869
aVylcG
p3870
aVylcH
p3871
aVylcI
p3872
aVyliE
p3873
aVyliF
p3874
aVyliI
p3875
aVymcE
p3876
aVymdA
p3877
aVymdB
p3878
aVymdF
p3879
aVymfA
p3880
aVymfD
p3881
aVymfE
p3882
aVymfI
p3883
aVymfJ
p3884
aVymfL
p3885
aVymfM
p3886
aVymfQ
p3887
aVymfR
p3888
aVymgA
p3889
aVymgC
p3890
aVymgD
p3891
aVymgE
p3892
aVymgF
p3893
aVymgG
p3894
aVymgI
p3895
aVymgJ
p3896
aVymiA
p3897
aVymiB
p3898
aVymjA
p3899
aVynaE
p3900
aVynaI
p3901
aVynaJ
p3902
aVynaK
p3903
aVynbA
p3904
aVynbB
p3905
aVynbC
p3906
aVynbD
p3907
aVynbE
p3908
aVynbG
p3909
aVyncD
p3910
aVyncE
p3911
aVyncG
p3912
aVyncH
p3913
aVyncJ
p3914
aVyncL
p3915
aVyneE
p3916
aVyneF
p3917
aVyneG
p3918
aVyneJ
p3919
aVyneK
p3920
aVyneM
p3921
aVynfA
p3922
aVynfB
p3923
aVynfC
p3924
aVynfD
p3925
aVynfE
p3926
aVynfF
p3927
aVynfG
p3928
aVynfH
p3929
aVynfK
p3930
aVynfL
p3931
aVynfM
p3932
aVynfN
p3933
aVynfO
p3934
aVynhF
p3935
aVyniA
p3936
aVyniB
p3937
aVyniC
p3938
aVyniD
p3939
aVynjA
p3940
aVynjB
p3941
aVynjC
p3942
aVynjD
p3943
aVynjE
p3944
aVynjF
p3945
aVynjH
p3946
aVynjI
p3947
aVyoaA
p3948
aVyoaB
p3949
aVyoaC
p3950
aVyoaD
p3951
aVyoaE
p3952
aVyoaF
p3953
aVyoaG
p3954
aVyoaH
p3955
aVyoaI
p3956
aVyoaJ
p3957
aVyoaK
p3958
aVyobA
p3959
aVyobB
p3960
aVyobD
p3961
aVyobF
p3962
aVyobH
p3963
aVyobI
p3964
aVyodB
p3965
aVyodC
p3966
aVyodD
p3967
aVyoeB
p3968
aVyoeI
p3969
aVyohC
p3970
aVyohD
p3971
aVyohF
p3972
aVyohJ
p3973
aVyohK
p3974
aVyohO
p3975
aVyohP
p3976
aVyojI
p3977
aVypdA
p3978
aVypdB
p3979
aVypdC
p3980
aVypdE
p3981
aVypdF
p3982
aVypdI
p3983
aVypdK
p3984
aVypeA
p3985
aVypeB
p3986
aVypeC
p3987
aVypfG
p3988
aVypfH
p3989
aVypfJ
p3990
aVypfM
p3991
aVypfN
p3992
aVyphA
p3993
aVyphB
p3994
aVyphC
p3995
aVyphD
p3996
aVyphE
p3997
aVyphF
p3998
aVyphG
p3999
aVyphH
p4000
aVypjA
p4001
aVypjD
p4002
aVypjF
p4003
aVypjJ
p4004
aVypjK
p4005
aVyqaA
p4006
aVyqaB
p4007
aVyqaE
p4008
aVyqcA
p4009
aVyqcC
p4010
aVyqcE
p4011
aVyqcG
p4012
aVyqeA
p4013
aVyqeB
p4014
aVyqeC
p4015
aVyqeF
p4016
aVyqeG
p4017
aVyqeH
p4018
aVyqeI
p4019
aVyqeJ
p4020
aVyqeK
p4021
aVyqeL
p4022
aVyqfA
p4023
aVyqfB
p4024
aVyqfG
p4025
aVyqgA
p4026
aVyqgB
p4027
aVyqgC
p4028
aVyqgE
p4029
aVyqgF
p4030
aVyqhA
p4031
aVyqhC
p4032
aVyqhD
p4033
aVyqhG
p4034
aVyqhH
p4035
aVyqiA
p4036
aVyqiB
p4037
aVyqiC
p4038
aVyqiH
p4039
aVyqiI
p4040
aVyqiJ
p4041
aVyqiK
p4042
aVyqjA
p4043
aVyqjC
p4044
aVyqjD
p4045
aVyqjE
p4046
aVyqjF
p4047
aVyqjG
p4048
aVyqjH
p4049
aVyqjI
p4050
aVyqjK
p4051
aVyraH
p4052
aVyraI
p4053
aVyraJ
p4054
aVyraK
p4055
aVyraN
p4056
aVyraP
p4057
aVyraQ
p4058
aVyraR
p4059
aVyrbG
p4060
aVyrbL
p4061
aVyrbN
p4062
aVyrdA
p4063
aVyrdB
p4064
aVyrdD
p4065
aVyrfF
p4066
aVyrfG
p4067
aVyrhB
p4068
aVysaA
p4069
aVysaB
p4070
aVysgA
p4071
aVyshB
p4072
aVytcA
p4073
aVytfB
p4074
aVytfE
p4075
aVytfF
p4076
aVytfH
p4077
aVytfI
p4078
aVytfJ
p4079
aVytfK
p4080
aVytfL
p4081
aVytfP
p4082
aVytfQ
p4083
aVytfR
p4084
aVytfT
p4085
aVythA
p4086
aVytjA
p4087
aVytjB
p4088
aVytjC
p4089
aVzapA
p4090
aVzapB
p4091
aVzapC
p4092
aVzapD
p4093
aVzapE
p4094
aVzinT
p4095
aVzipA
p4096
aVzitB
p4097
aVzntA
p4098
aVzntR
p4099
aVznuA
p4100
aVznuB
p4101
aVznuC
p4102
aVzraP
p4103
aVzraR
p4104
aVzraS
p4105
aVzupT
p4106
aVzur
p4107
aVzwf
p4108
a.